target datalayout = "e-m:e-p270:32:32-p271:32:32-p272:64:64-i64:64-i128:128-f80:128-n8:16:32:64-S128"
target triple = "x86_64-pc-linux-gnu"

%"struct.duckdb_lz4::LZ4_streamDecode_t_internal" = type { ptr, ptr, i64, i64 }

; Function Attrs: mustprogress uwtable
define noundef i32 @_ZN10duckdb_lz432LZ4_decompress_safe_forceExtDictEPKcPciiPKvm(ptr noundef %0, ptr noundef %1, i32 noundef %2, i32 noundef %3, ptr noundef %4, i64 noundef %5) #1 {
  %7 = alloca ptr, align 8
  %8 = alloca ptr, align 8
  %9 = alloca i32, align 4
  %10 = alloca i32, align 4
  %11 = alloca ptr, align 8
  %12 = alloca i64, align 8
  store ptr %0, ptr %7, align 8, !tbaa !9
  store ptr %1, ptr %8, align 8, !tbaa !9
  store i32 %2, ptr %9, align 4, !tbaa !3
  store i32 %3, ptr %10, align 4, !tbaa !3
  store ptr %4, ptr %11, align 8, !tbaa !7
  store i64 %5, ptr %12, align 8, !tbaa !15
  %13 = load ptr, ptr %7, align 8, !tbaa !9
  %14 = load ptr, ptr %8, align 8, !tbaa !9
  %15 = load i32, ptr %9, align 4, !tbaa !3
  %16 = load i32, ptr %10, align 4, !tbaa !3
  %17 = load ptr, ptr %8, align 8, !tbaa !9
  %18 = load ptr, ptr %11, align 8, !tbaa !7
  %19 = load i64, ptr %12, align 8, !tbaa !15
  %20 = call noundef i32 @_ZN10duckdb_lz4L22LZ4_decompress_genericEPKcPciiNS_18earlyEnd_directiveENS_14dict_directiveEPKhS6_m(ptr noundef %13, ptr noundef %14, i32 noundef %15, i32 noundef %16, i32 noundef 0, i32 noundef 2, ptr noundef %17, ptr noundef %18, i64 noundef %19)
  ret i32 %20
}

; Function Attrs: mustprogress uwtable
define internal noundef i32 @_ZN10duckdb_lz4L30LZ4_decompress_safe_doubleDictEPKcPciimPKvm(ptr noundef %0, ptr noundef %1, i32 noundef %2, i32 noundef %3, i64 noundef %4, ptr noundef %5, i64 noundef %6) #1 {
  %8 = alloca ptr, align 8
  %9 = alloca ptr, align 8
  %10 = alloca i32, align 4
  %11 = alloca i32, align 4
  %12 = alloca i64, align 8
  %13 = alloca ptr, align 8
  %14 = alloca i64, align 8
  store ptr %0, ptr %8, align 8, !tbaa !9
  store ptr %1, ptr %9, align 8, !tbaa !9
  store i32 %2, ptr %10, align 4, !tbaa !3
  store i32 %3, ptr %11, align 4, !tbaa !3
  store i64 %4, ptr %12, align 8, !tbaa !15
  store ptr %5, ptr %13, align 8, !tbaa !7
  store i64 %6, ptr %14, align 8, !tbaa !15
  %15 = load ptr, ptr %8, align 8, !tbaa !9
  %16 = load ptr, ptr %9, align 8, !tbaa !9
  %17 = load i32, ptr %10, align 4, !tbaa !3
  %18 = load i32, ptr %11, align 4, !tbaa !3
  %19 = load ptr, ptr %9, align 8, !tbaa !9
  %20 = load i64, ptr %12, align 8, !tbaa !15
  %21 = sub i64 0, %20
  %22 = getelementptr inbounds i8, ptr %19, i64 %21
  %23 = load ptr, ptr %13, align 8, !tbaa !7
  %24 = load i64, ptr %14, align 8, !tbaa !15
  %25 = call noundef i32 @_ZN10duckdb_lz4L22LZ4_decompress_genericEPKcPciiNS_18earlyEnd_directiveENS_14dict_directiveEPKhS6_m(ptr noundef %15, ptr noundef %16, i32 noundef %17, i32 noundef %18, i32 noundef 0, i32 noundef 2, ptr noundef %22, ptr noundef %23, i64 noundef %24)
  ret i32 %25
}

; Function Attrs: mustprogress uwtable
define internal noundef i32 @_ZN10duckdb_lz4L35LZ4_decompress_safe_withSmallPrefixEPKcPciim(ptr noundef %0, ptr noundef %1, i32 noundef %2, i32 noundef %3, i64 noundef %4) #1 {
  %6 = alloca ptr, align 8
  %7 = alloca ptr, align 8
  %8 = alloca i32, align 4
  %9 = alloca i32, align 4
  %10 = alloca i64, align 8
  store ptr %0, ptr %6, align 8, !tbaa !9
  store ptr %1, ptr %7, align 8, !tbaa !9
  store i32 %2, ptr %8, align 4, !tbaa !3
  store i32 %3, ptr %9, align 4, !tbaa !3
  store i64 %4, ptr %10, align 8, !tbaa !15
  %11 = load ptr, ptr %6, align 8, !tbaa !9
  %12 = load ptr, ptr %7, align 8, !tbaa !9
  %13 = load i32, ptr %8, align 4, !tbaa !3
  %14 = load i32, ptr %9, align 4, !tbaa !3
  %15 = load ptr, ptr %7, align 8, !tbaa !9
  %16 = load i64, ptr %10, align 8, !tbaa !15
  %17 = sub i64 0, %16
  %18 = getelementptr inbounds i8, ptr %15, i64 %17
  %19 = call noundef i32 @_ZN10duckdb_lz4L22LZ4_decompress_genericEPKcPciiNS_18earlyEnd_directiveENS_14dict_directiveEPKhS6_m(ptr noundef %11, ptr noundef %12, i32 noundef %13, i32 noundef %14, i32 noundef 0, i32 noundef 0, ptr noundef %18, ptr noundef null, i64 noundef 0)
  ret i32 %19
}

; Function Attrs: mustprogress uwtable
define noundef i32 @_ZN10duckdb_lz433LZ4_decompress_safe_withPrefix64kEPKcPcii(ptr noundef %0, ptr noundef %1, i32 noundef %2, i32 noundef %3) #1 {
  %5 = alloca ptr, align 8
  %6 = alloca ptr, align 8
  %7 = alloca i32, align 4
  %8 = alloca i32, align 4
  store ptr %0, ptr %5, align 8, !tbaa !9
  store ptr %1, ptr %6, align 8, !tbaa !9
  store i32 %2, ptr %7, align 4, !tbaa !3
  store i32 %3, ptr %8, align 4, !tbaa !3
  %9 = load ptr, ptr %5, align 8, !tbaa !9
  %10 = load ptr, ptr %6, align 8, !tbaa !9
  %11 = load i32, ptr %7, align 4, !tbaa !3
  %12 = load i32, ptr %8, align 4, !tbaa !3
  %13 = load ptr, ptr %6, align 8, !tbaa !9
  %14 = getelementptr inbounds i8, ptr %13, i64 -65536
  %15 = call noundef i32 @_ZN10duckdb_lz4L22LZ4_decompress_genericEPKcPciiNS_18earlyEnd_directiveENS_14dict_directiveEPKhS6_m(ptr noundef %9, ptr noundef %10, i32 noundef %11, i32 noundef %12, i32 noundef 0, i32 noundef 1, ptr noundef %14, ptr noundef null, i64 noundef 0)
  ret i32 %15
}

; Function Attrs: mustprogress uwtable
define noundef i32 @_ZN10duckdb_lz419LZ4_decompress_safeEPKcPcii(ptr noundef %0, ptr noundef %1, i32 noundef %2, i32 noundef %3) #1 {
  %5 = alloca ptr, align 8
  %6 = alloca ptr, align 8
  %7 = alloca i32, align 4
  %8 = alloca i32, align 4
  store ptr %0, ptr %5, align 8, !tbaa !9
  store ptr %1, ptr %6, align 8, !tbaa !9
  store i32 %2, ptr %7, align 4, !tbaa !3
  store i32 %3, ptr %8, align 4, !tbaa !3
  %9 = load ptr, ptr %5, align 8, !tbaa !9
  %10 = load ptr, ptr %6, align 8, !tbaa !9
  %11 = load i32, ptr %7, align 4, !tbaa !3
  %12 = load i32, ptr %8, align 4, !tbaa !3
  %13 = load ptr, ptr %6, align 8, !tbaa !9
  %14 = call noundef i32 @_ZN10duckdb_lz4L22LZ4_decompress_genericEPKcPciiNS_18earlyEnd_directiveENS_14dict_directiveEPKhS6_m(ptr noundef %9, ptr noundef %10, i32 noundef %11, i32 noundef %12, i32 noundef 0, i32 noundef 0, ptr noundef %13, ptr noundef null, i64 noundef 0)
  ret i32 %14
}

; Function Attrs: mustprogress uwtable
define noundef i32 @_ZN10duckdb_lz428LZ4_decompress_safe_continueEPNS_18LZ4_streamDecode_uEPKcPcii(ptr noundef %0, ptr noundef %1, ptr noundef %2, i32 noundef %3, i32 noundef %4) #1 {
  %6 = alloca i32, align 4
  %7 = alloca ptr, align 8
  %8 = alloca ptr, align 8
  %9 = alloca ptr, align 8
  %10 = alloca i32, align 4
  %11 = alloca i32, align 4
  %12 = alloca ptr, align 8
  %13 = alloca i32, align 4
  %14 = alloca i32, align 4
  store ptr %0, ptr %7, align 8, !tbaa !50
  store ptr %1, ptr %8, align 8, !tbaa !9
  store ptr %2, ptr %9, align 8, !tbaa !9
  store i32 %3, ptr %10, align 4, !tbaa !3
  store i32 %4, ptr %11, align 4, !tbaa !3
  call void @llvm.lifetime.start.p0(i64 8, ptr %12) #9
  %15 = load ptr, ptr %7, align 8, !tbaa !50
  store ptr %15, ptr %12, align 8, !tbaa !7
  call void @llvm.lifetime.start.p0(i64 4, ptr %13) #9
  %16 = load ptr, ptr %12, align 8, !tbaa !7
  %17 = getelementptr inbounds nuw %"struct.duckdb_lz4::LZ4_streamDecode_t_internal", ptr %16, i32 0, i32 3
  %18 = load i64, ptr %17, align 8, !tbaa !52
  %19 = icmp eq i64 %18, 0
  br i1 %19, label %20, label %41

20:                                               ; preds = %5
  %21 = load ptr, ptr %8, align 8, !tbaa !9
  %22 = load ptr, ptr %9, align 8, !tbaa !9
  %23 = load i32, ptr %10, align 4, !tbaa !3
  %24 = load i32, ptr %11, align 4, !tbaa !3
  %25 = call noundef i32 @_ZN10duckdb_lz419LZ4_decompress_safeEPKcPcii(ptr noundef %21, ptr noundef %22, i32 noundef %23, i32 noundef %24)
  store i32 %25, ptr %13, align 4, !tbaa !3
  %26 = load i32, ptr %13, align 4, !tbaa !3
  %27 = icmp sle i32 %26, 0
  br i1 %27, label %28, label %30

28:                                               ; preds = %20
  %29 = load i32, ptr %13, align 4, !tbaa !3
  store i32 %29, ptr %6, align 4
  store i32 1, ptr %14, align 4
  br label %151

30:                                               ; preds = %20
  %31 = load i32, ptr %13, align 4, !tbaa !3
  %32 = sext i32 %31 to i64
  %33 = load ptr, ptr %12, align 8, !tbaa !7
  %34 = getelementptr inbounds nuw %"struct.duckdb_lz4::LZ4_streamDecode_t_internal", ptr %33, i32 0, i32 3
  store i64 %32, ptr %34, align 8, !tbaa !52
  %35 = load ptr, ptr %9, align 8, !tbaa !9
  %36 = load i32, ptr %13, align 4, !tbaa !3
  %37 = sext i32 %36 to i64
  %38 = getelementptr inbounds i8, ptr %35, i64 %37
  %39 = load ptr, ptr %12, align 8, !tbaa !7
  %40 = getelementptr inbounds nuw %"struct.duckdb_lz4::LZ4_streamDecode_t_internal", ptr %39, i32 0, i32 1
  store ptr %38, ptr %40, align 8, !tbaa !54
  br label %149

41:                                               ; preds = %5
  %42 = load ptr, ptr %12, align 8, !tbaa !7
  %43 = getelementptr inbounds nuw %"struct.duckdb_lz4::LZ4_streamDecode_t_internal", ptr %42, i32 0, i32 1
  %44 = load ptr, ptr %43, align 8, !tbaa !54
  %45 = load ptr, ptr %9, align 8, !tbaa !9
  %46 = icmp eq ptr %44, %45
  br i1 %46, label %47, label %106

47:                                               ; preds = %41
  %48 = load ptr, ptr %12, align 8, !tbaa !7
  %49 = getelementptr inbounds nuw %"struct.duckdb_lz4::LZ4_streamDecode_t_internal", ptr %48, i32 0, i32 3
  %50 = load i64, ptr %49, align 8, !tbaa !52
  %51 = icmp uge i64 %50, 65535
  br i1 %51, label %52, label %58

52:                                               ; preds = %47
  %53 = load ptr, ptr %8, align 8, !tbaa !9
  %54 = load ptr, ptr %9, align 8, !tbaa !9
  %55 = load i32, ptr %10, align 4, !tbaa !3
  %56 = load i32, ptr %11, align 4, !tbaa !3
  %57 = call noundef i32 @_ZN10duckdb_lz433LZ4_decompress_safe_withPrefix64kEPKcPcii(ptr noundef %53, ptr noundef %54, i32 noundef %55, i32 noundef %56)
  store i32 %57, ptr %13, align 4, !tbaa !3
  br label %88

58:                                               ; preds = %47
  %59 = load ptr, ptr %12, align 8, !tbaa !7
  %60 = getelementptr inbounds nuw %"struct.duckdb_lz4::LZ4_streamDecode_t_internal", ptr %59, i32 0, i32 2
  %61 = load i64, ptr %60, align 8, !tbaa !56
  %62 = icmp eq i64 %61, 0
  br i1 %62, label %63, label %72

63:                                               ; preds = %58
  %64 = load ptr, ptr %8, align 8, !tbaa !9
  %65 = load ptr, ptr %9, align 8, !tbaa !9
  %66 = load i32, ptr %10, align 4, !tbaa !3
  %67 = load i32, ptr %11, align 4, !tbaa !3
  %68 = load ptr, ptr %12, align 8, !tbaa !7
  %69 = getelementptr inbounds nuw %"struct.duckdb_lz4::LZ4_streamDecode_t_internal", ptr %68, i32 0, i32 3
  %70 = load i64, ptr %69, align 8, !tbaa !52
  %71 = call noundef i32 @_ZN10duckdb_lz4L35LZ4_decompress_safe_withSmallPrefixEPKcPciim(ptr noundef %64, ptr noundef %65, i32 noundef %66, i32 noundef %67, i64 noundef %70)
  store i32 %71, ptr %13, align 4, !tbaa !3
  br label %87

72:                                               ; preds = %58
  %73 = load ptr, ptr %8, align 8, !tbaa !9
  %74 = load ptr, ptr %9, align 8, !tbaa !9
  %75 = load i32, ptr %10, align 4, !tbaa !3
  %76 = load i32, ptr %11, align 4, !tbaa !3
  %77 = load ptr, ptr %12, align 8, !tbaa !7
  %78 = getelementptr inbounds nuw %"struct.duckdb_lz4::LZ4_streamDecode_t_internal", ptr %77, i32 0, i32 3
  %79 = load i64, ptr %78, align 8, !tbaa !52
  %80 = load ptr, ptr %12, align 8, !tbaa !7
  %81 = getelementptr inbounds nuw %"struct.duckdb_lz4::LZ4_streamDecode_t_internal", ptr %80, i32 0, i32 0
  %82 = load ptr, ptr %81, align 8, !tbaa !55
  %83 = load ptr, ptr %12, align 8, !tbaa !7
  %84 = getelementptr inbounds nuw %"struct.duckdb_lz4::LZ4_streamDecode_t_internal", ptr %83, i32 0, i32 2
  %85 = load i64, ptr %84, align 8, !tbaa !56
  %86 = call noundef i32 @_ZN10duckdb_lz4L30LZ4_decompress_safe_doubleDictEPKcPciimPKvm(ptr noundef %73, ptr noundef %74, i32 noundef %75, i32 noundef %76, i64 noundef %79, ptr noundef %82, i64 noundef %85)
  store i32 %86, ptr %13, align 4, !tbaa !3
  br label %87

87:                                               ; preds = %72, %63
  br label %88

88:                                               ; preds = %87, %52
  %89 = load i32, ptr %13, align 4, !tbaa !3
  %90 = icmp sle i32 %89, 0
  br i1 %90, label %91, label %93

91:                                               ; preds = %88
  %92 = load i32, ptr %13, align 4, !tbaa !3
  store i32 %92, ptr %6, align 4
  store i32 1, ptr %14, align 4
  br label %151

93:                                               ; preds = %88
  %94 = load i32, ptr %13, align 4, !tbaa !3
  %95 = sext i32 %94 to i64
  %96 = load ptr, ptr %12, align 8, !tbaa !7
  %97 = getelementptr inbounds nuw %"struct.duckdb_lz4::LZ4_streamDecode_t_internal", ptr %96, i32 0, i32 3
  %98 = load i64, ptr %97, align 8, !tbaa !52
  %99 = add i64 %98, %95
  store i64 %99, ptr %97, align 8, !tbaa !52
  %100 = load i32, ptr %13, align 4, !tbaa !3
  %101 = load ptr, ptr %12, align 8, !tbaa !7
  %102 = getelementptr inbounds nuw %"struct.duckdb_lz4::LZ4_streamDecode_t_internal", ptr %101, i32 0, i32 1
  %103 = load ptr, ptr %102, align 8, !tbaa !54
  %104 = sext i32 %100 to i64
  %105 = getelementptr inbounds i8, ptr %103, i64 %104
  store ptr %105, ptr %102, align 8, !tbaa !54
  br label %148

106:                                              ; preds = %41
  %107 = load ptr, ptr %12, align 8, !tbaa !7
  %108 = getelementptr inbounds nuw %"struct.duckdb_lz4::LZ4_streamDecode_t_internal", ptr %107, i32 0, i32 3
  %109 = load i64, ptr %108, align 8, !tbaa !52
  %110 = load ptr, ptr %12, align 8, !tbaa !7
  %111 = getelementptr inbounds nuw %"struct.duckdb_lz4::LZ4_streamDecode_t_internal", ptr %110, i32 0, i32 2
  store i64 %109, ptr %111, align 8, !tbaa !56
  %112 = load ptr, ptr %12, align 8, !tbaa !7
  %113 = getelementptr inbounds nuw %"struct.duckdb_lz4::LZ4_streamDecode_t_internal", ptr %112, i32 0, i32 1
  %114 = load ptr, ptr %113, align 8, !tbaa !54
  %115 = load ptr, ptr %12, align 8, !tbaa !7
  %116 = getelementptr inbounds nuw %"struct.duckdb_lz4::LZ4_streamDecode_t_internal", ptr %115, i32 0, i32 2
  %117 = load i64, ptr %116, align 8, !tbaa !56
  %118 = sub i64 0, %117
  %119 = getelementptr inbounds i8, ptr %114, i64 %118
  %120 = load ptr, ptr %12, align 8, !tbaa !7
  %121 = getelementptr inbounds nuw %"struct.duckdb_lz4::LZ4_streamDecode_t_internal", ptr %120, i32 0, i32 0
  store ptr %119, ptr %121, align 8, !tbaa !55
  %122 = load ptr, ptr %8, align 8, !tbaa !9
  %123 = load ptr, ptr %9, align 8, !tbaa !9
  %124 = load i32, ptr %10, align 4, !tbaa !3
  %125 = load i32, ptr %11, align 4, !tbaa !3
  %126 = load ptr, ptr %12, align 8, !tbaa !7
  %127 = getelementptr inbounds nuw %"struct.duckdb_lz4::LZ4_streamDecode_t_internal", ptr %126, i32 0, i32 0
  %128 = load ptr, ptr %127, align 8, !tbaa !55
  %129 = load ptr, ptr %12, align 8, !tbaa !7
  %130 = getelementptr inbounds nuw %"struct.duckdb_lz4::LZ4_streamDecode_t_internal", ptr %129, i32 0, i32 2
  %131 = load i64, ptr %130, align 8, !tbaa !56
  %132 = call noundef i32 @_ZN10duckdb_lz432LZ4_decompress_safe_forceExtDictEPKcPciiPKvm(ptr noundef %122, ptr noundef %123, i32 noundef %124, i32 noundef %125, ptr noundef %128, i64 noundef %131)
  store i32 %132, ptr %13, align 4, !tbaa !3
  %133 = load i32, ptr %13, align 4, !tbaa !3
  %134 = icmp sle i32 %133, 0
  br i1 %134, label %135, label %137

135:                                              ; preds = %106
  %136 = load i32, ptr %13, align 4, !tbaa !3
  store i32 %136, ptr %6, align 4
  store i32 1, ptr %14, align 4
  br label %151

137:                                              ; preds = %106
  %138 = load i32, ptr %13, align 4, !tbaa !3
  %139 = sext i32 %138 to i64
  %140 = load ptr, ptr %12, align 8, !tbaa !7
  %141 = getelementptr inbounds nuw %"struct.duckdb_lz4::LZ4_streamDecode_t_internal", ptr %140, i32 0, i32 3
  store i64 %139, ptr %141, align 8, !tbaa !52
  %142 = load ptr, ptr %9, align 8, !tbaa !9
  %143 = load i32, ptr %13, align 4, !tbaa !3
  %144 = sext i32 %143 to i64
  %145 = getelementptr inbounds i8, ptr %142, i64 %144
  %146 = load ptr, ptr %12, align 8, !tbaa !7
  %147 = getelementptr inbounds nuw %"struct.duckdb_lz4::LZ4_streamDecode_t_internal", ptr %146, i32 0, i32 1
  store ptr %145, ptr %147, align 8, !tbaa !54
  br label %148

148:                                              ; preds = %137, %93
  br label %149

149:                                              ; preds = %148, %30
  %150 = load i32, ptr %13, align 4, !tbaa !3
  store i32 %150, ptr %6, align 4
  store i32 1, ptr %14, align 4
  br label %151

151:                                              ; preds = %149, %135, %91, %28
  call void @llvm.lifetime.end.p0(i64 4, ptr %13) #9
  call void @llvm.lifetime.end.p0(i64 8, ptr %12) #9
  %152 = load i32, ptr %6, align 4
  ret i32 %152
}