; Function Attrs: mustprogress nofree norecurse nosync nounwind memory(readwrite, inaccessiblemem: none) uwtable
define noundef i32 @_ZN10duckdb_lz428LZ4_decompress_safe_continueEPNS_18LZ4_streamDecode_uEPKcPcii(ptr noundef captures(none) %0, ptr noundef %1, ptr noundef %2, i32 noundef %3, i32 noundef %4) local_unnamed_addr #1 {
  %6 = getelementptr inbounds nuw i8, ptr %0, i64 24
  %7 = load i64, ptr %6, align 8, !tbaa !45
  %8 = icmp eq i64 %7, 0
  br i1 %8, label %9, label %16

9:                                                ; preds = %5
  %10 = tail call fastcc noundef i32 @_ZN10duckdb_lz4L22LZ4_decompress_genericEPKcPciiNS_18earlyEnd_directiveENS_14dict_directiveEPKhS6_m(ptr noundef %1, ptr noundef %2, i32 noundef %3, i32 noundef %4, i32 noundef 0, i32 noundef 0, ptr noundef %2, ptr noundef null, i64 noundef 0)
  %11 = icmp slt i32 %10, 1
  br i1 %11, label %55, label %12

12:                                               ; preds = %9
  %13 = zext nneg i32 %10 to i64
  store i64 %13, ptr %6, align 8, !tbaa !45
  %14 = getelementptr inbounds nuw i8, ptr %2, i64 %13
  %15 = getelementptr inbounds nuw i8, ptr %0, i64 8
  store ptr %14, ptr %15, align 8, !tbaa !48
  br label %55

16:                                               ; preds = %5
  %17 = getelementptr inbounds nuw i8, ptr %0, i64 8
  %18 = load ptr, ptr %17, align 8, !tbaa !48
  %19 = icmp eq ptr %18, %2
  br i1 %19, label %20, label %46

20:                                               ; preds = %16
  %21 = icmp ugt i64 %7, 65534
  br i1 %21, label %22, label %25

22:                                               ; preds = %20
  %23 = getelementptr inbounds i8, ptr %2, i64 -65536
  %24 = tail call fastcc noundef i32 @_ZN10duckdb_lz4L22LZ4_decompress_genericEPKcPciiNS_18earlyEnd_directiveENS_14dict_directiveEPKhS6_m(ptr noundef %1, ptr noundef %2, i32 noundef %3, i32 noundef %4, i32 noundef 0, i32 noundef 1, ptr noundef nonnull %23, ptr noundef null, i64 noundef 0)
  br label %38

25:                                               ; preds = %20
  %26 = getelementptr inbounds nuw i8, ptr %0, i64 16
  %27 = load i64, ptr %26, align 8, !tbaa !50
  %28 = icmp eq i64 %27, 0
  br i1 %28, label %29, label %33

29:                                               ; preds = %25
  %30 = sub nsw i64 0, %7
  %31 = getelementptr inbounds i8, ptr %2, i64 %30
  %32 = tail call fastcc noundef i32 @_ZN10duckdb_lz4L22LZ4_decompress_genericEPKcPciiNS_18earlyEnd_directiveENS_14dict_directiveEPKhS6_m(ptr noundef %1, ptr noundef %2, i32 noundef %3, i32 noundef %4, i32 noundef 0, i32 noundef 0, ptr noundef nonnull %31, ptr noundef null, i64 noundef 0)
  br label %38

33:                                               ; preds = %25
  %34 = load ptr, ptr %0, align 8, !tbaa !49
  %35 = sub nsw i64 0, %7
  %36 = getelementptr inbounds i8, ptr %2, i64 %35
  %37 = tail call fastcc noundef i32 @_ZN10duckdb_lz4L22LZ4_decompress_genericEPKcPciiNS_18earlyEnd_directiveENS_14dict_directiveEPKhS6_m(ptr noundef %1, ptr noundef %2, i32 noundef %3, i32 noundef %4, i32 noundef 0, i32 noundef 2, ptr noundef nonnull %36, ptr noundef %34, i64 noundef range(i64 1, 0) %27)
  br label %38

38:                                               ; preds = %29, %33, %22
  %.1 = phi i32 [ %24, %22 ], [ %32, %29 ], [ %37, %33 ]
  %39 = icmp slt i32 %.1, 1
  br i1 %39, label %55, label %40

40:                                               ; preds = %38
  %41 = zext nneg i32 %.1 to i64
  %42 = load i64, ptr %6, align 8, !tbaa !45
  %43 = add i64 %42, %41
  store i64 %43, ptr %6, align 8, !tbaa !45
  %44 = load ptr, ptr %17, align 8, !tbaa !48
  %45 = getelementptr inbounds nuw i8, ptr %44, i64 %41
  store ptr %45, ptr %17, align 8, !tbaa !48
  br label %55

46:                                               ; preds = %16
  %47 = getelementptr inbounds nuw i8, ptr %0, i64 16
  store i64 %7, ptr %47, align 8, !tbaa !50
  %48 = sub i64 0, %7
  %49 = getelementptr inbounds i8, ptr %18, i64 %48
  store ptr %49, ptr %0, align 8, !tbaa !49
  %50 = tail call fastcc noundef i32 @_ZN10duckdb_lz4L22LZ4_decompress_genericEPKcPciiNS_18earlyEnd_directiveENS_14dict_directiveEPKhS6_m(ptr noundef %1, ptr noundef %2, i32 noundef %3, i32 noundef %4, i32 noundef 0, i32 noundef 2, ptr noundef %2, ptr noundef nonnull %49, i64 noundef %7)
  %51 = icmp slt i32 %50, 1
  br i1 %51, label %55, label %52

52:                                               ; preds = %46
  %53 = zext nneg i32 %50 to i64
  store i64 %53, ptr %6, align 8, !tbaa !45
  %54 = getelementptr inbounds nuw i8, ptr %2, i64 %53
  store ptr %54, ptr %17, align 8, !tbaa !48
  br label %55

55:                                               ; preds = %12, %52, %40, %46, %38, %9
  %.058 = phi i32 [ %10, %9 ], [ %.1, %38 ], [ %50, %46 ], [ %10, %12 ], [ %.1, %40 ], [ %50, %52 ]
  ret i32 %.058
}